; Function Attrs: mustprogress uwtable
define void @_ZNK32pxrInternal_v0_24__pxrReserved__8SdfLayer22ListTimeSamplesForPathERKNS_7SdfPathE(ptr dead_on_unwind noalias writable sret(%"class.std::set.179") align 8 %0, ptr noundef nonnull readonly align 8 captures(none) dereferenceable(557) %1, ptr noundef nonnull align 4 dereferenceable(8) %2) local_unnamed_addr #3 align 2 {
  %4 = alloca %"class.pxrInternal_v0_24__pxrReserved__::TfCallContext", align 8
  %5 = getelementptr inbounds nuw i8, ptr %1, i64 136
  call void @llvm.lifetime.start.p0(i64 40, ptr nonnull %4)
  %6 = load ptr, ptr %5, align 8
  %.not.i = icmp eq ptr %6, null
  br i1 %.not.i, label %7, label %_ZNK32pxrInternal_v0_24__pxrReserved__8TfRefPtrINS_15SdfAbstractDataEEptEv.exit

7:                                                ; preds = %3
  store ptr @.str.146, ptr %4, align 8
  %8 = getelementptr inbounds nuw i8, ptr %4, i64 8
  store ptr @__func__._ZNK32pxrInternal_v0_24__pxrReserved__8TfRefPtrINS_10Tf_RemnantEEptEv, ptr %8, align 8
  %9 = getelementptr inbounds nuw i8, ptr %4, i64 16
  store i64 936, ptr %9, align 8
  %10 = getelementptr inbounds nuw i8, ptr %4, i64 24
  store ptr @__PRETTY_FUNCTION__._ZNK32pxrInternal_v0_24__pxrReserved__8TfRefPtrINS_15SdfAbstractDataEEptEv, ptr %10, align 8
  %11 = getelementptr inbounds nuw i8, ptr %4, i64 32
  store i8 0, ptr %11, align 8
  call void @_ZN32pxrInternal_v0_24__pxrReserved__40Tf_PostNullSmartPtrDereferenceFatalErrorERKNS_13TfCallContextEPKc(ptr noundef nonnull align 8 dereferenceable(33) %4, ptr noundef nonnull @_ZTSN32pxrInternal_v0_24__pxrReserved__8TfRefPtrINS_15SdfAbstractDataEEE) #31
  unreachable

_ZNK32pxrInternal_v0_24__pxrReserved__8TfRefPtrINS_15SdfAbstractDataEEptEv.exit: ; preds = %3
  call void @llvm.lifetime.end.p0(i64 40, ptr nonnull %4)
  %12 = load ptr, ptr %6, align 8
  %13 = getelementptr inbounds nuw i8, ptr %12, i64 248
  %14 = load ptr, ptr %13, align 8
  tail call void %14(ptr dead_on_unwind writable sret(%"class.std::set.179") align 8 %0, ptr noundef nonnull align 8 dereferenceable(24) %6, ptr noundef nonnull align 4 dereferenceable(8) %2)
  ret void
}